; Function Attrs: nounwind uwtable
define dso_local ptr @abi_arg_new_indirect_by_val(ptr noundef %0) local_unnamed_addr #2 {
  %2 = tail call ptr @calloc_arena(i64 noundef 32) #5
  %3 = getelementptr inbounds i8, ptr %2, i64 4
  %4 = load i8, ptr %3, align 4
  %5 = and i8 %4, -64
  %6 = or disjoint i8 %5, 7
  store i8 %6, ptr %3, align 4
  %7 = tail call i32 @type_abi_alignment(ptr noundef %0) #5
  %8 = getelementptr inbounds i8, ptr %2, i64 8
  store i32 %7, ptr %8, align 8
  %9 = getelementptr inbounds i8, ptr %2, i64 16
  store ptr %0, ptr %9, align 8
  %10 = getelementptr inbounds i8, ptr %2, i64 5
  %11 = load i8, ptr %10, align 1
  %12 = or i8 %11, 16
  store i8 %12, ptr %10, align 1
  ret ptr %2
}